; Function Attrs: nounwind uwtable
define internal fastcc ptr @r_long64(ptr noundef nonnull captures(none) %0) unnamed_addr #0 {
  %2 = tail call fastcc ptr @r_string(i64 noundef 8, ptr noundef %0)
  %3 = icmp eq ptr %2, null
  br i1 %3, label %6, label %4

4:                                                ; preds = %1
  %5 = tail call ptr @_PyLong_FromByteArray(ptr noundef nonnull %2, i64 noundef 8, i32 noundef 1, i32 noundef 1) #11
  br label %6

6:                                                ; preds = %1, %4
  %.0 = phi ptr [ %5, %4 ], [ null, %1 ]
  ret ptr %.0
}